     1                                  ; 十六进制转储实用工具
     2                                  
     3                                  SECTION .bss
     4                                      BUFFLEN equ 10
     5 00000000 <res 0000000A>              Buff resb BUFFLEN
     6                                  
     7                                  SECTION .data
     8 00000000 303020303020303020-         Dumplin: db "00 00 00 00 00 00 00 00 00 00 00 00 00 00 00 00", 10
     9 00000009 303020303020303020-
    10 00000012 303020303020303020-
    11 0000001B 303020303020303020-
    12 00000024 303020303020303020-
    13 0000002D 30300A             
    14                                      DUMPLEN equ $-Dumplin
    15 00000030 7C2E2E2E2E2E2E2E2E-         ASClin: db "|................|", 10
    16 00000039 2E2E2E2E2E2E2E2E7C-
    17 00000042 0A                 
    18                                      ASCLEN equ $-ASClin
    19                                      FULLLEN equ $-Dumplin
    20                                  
    21                                  ; hexdigits表用来把数字值转换位它们的十六进制等值
    22 00000043 303132333435363738-     Hexdigits: db "0123456789ABCDEF"
    23 0000004C 39414243444546     
    24                                  
    25                                  Dotxlat:
    26 00000053 2E2E2E2E2E2E2E2E2E-         db 2Eh,2Eh,2Eh,2Eh,2Eh,2Eh,2Eh,2Eh,2Eh,2Eh,2Eh,2Eh,2Eh,2Eh,2Eh,2Eh
    27 0000005C 2E2E2E2E2E2E2E     
    28 00000063 2E2E2E2E2E2E2E2E2E-     	db 2Eh,2Eh,2Eh,2Eh,2Eh,2Eh,2Eh,2Eh,2Eh,2Eh,2Eh,2Eh,2Eh,2Eh,2Eh,2Eh
    29 0000006C 2E2E2E2E2E2E2E     
    30 00000073 202122232425262728-     	db 20h,21h,22h,23h,24h,25h,26h,27h,28h,29h,2Ah,2Bh,2Ch,2Dh,2Eh,2Fh
    31 0000007C 292A2B2C2D2E2F     
    32 00000083 303132333435363738-     	db 30h,31h,32h,33h,34h,35h,36h,37h,38h,39h,3Ah,3Bh,3Ch,3Dh,3Eh,3Fh
    33 0000008C 393A3B3C3D3E3F     
    34 00000093 404142434445464748-     	db 40h,41h,42h,43h,44h,45h,46h,47h,48h,49h,4Ah,4Bh,4Ch,4Dh,4Eh,4Fh
    35 0000009C 494A4B4C4D4E4F     
    36 000000A3 505152535455565758-     	db 50h,51h,52h,53h,54h,55h,56h,57h,58h,59h,5Ah,5Bh,5Ch,5Dh,5Eh,5Fh
    37 000000AC 595A5B5C5D5E5F     
    38 000000B3 606162636465666768-     	db 60h,61h,62h,63h,64h,65h,66h,67h,68h,69h,6Ah,6Bh,6Ch,6Dh,6Eh,6Fh
    39 000000BC 696A6B6C6D6E6F     
    40 000000C3 707172737475767778-     	db 70h,71h,72h,73h,74h,75h,76h,77h,78h,79h,7Ah,7Bh,7Ch,7Dh,7Eh,2Eh
    41 000000CC 797A7B7C7D7E2E     
    42 000000D3 2E2E2E2E2E2E2E2E2E-     	db 2Eh,2Eh,2Eh,2Eh,2Eh,2Eh,2Eh,2Eh,2Eh,2Eh,2Eh,2Eh,2Eh,2Eh,2Eh,2Eh
    43 000000DC 2E2E2E2E2E2E2E     
    44 000000E3 2E2E2E2E2E2E2E2E2E-     	db 2Eh,2Eh,2Eh,2Eh,2Eh,2Eh,2Eh,2Eh,2Eh,2Eh,2Eh,2Eh,2Eh,2Eh,2Eh,2Eh
    45 000000EC 2E2E2E2E2E2E2E     
    46 000000F3 2E2E2E2E2E2E2E2E2E-     	db 2Eh,2Eh,2Eh,2Eh,2Eh,2Eh,2Eh,2Eh,2Eh,2Eh,2Eh,2Eh,2Eh,2Eh,2Eh,2Eh
    47 000000FC 2E2E2E2E2E2E2E     
    48 00000103 2E2E2E2E2E2E2E2E2E-     	db 2Eh,2Eh,2Eh,2Eh,2Eh,2Eh,2Eh,2Eh,2Eh,2Eh,2Eh,2Eh,2Eh,2Eh,2Eh,2Eh
    49 0000010C 2E2E2E2E2E2E2E     
    50 00000113 2E2E2E2E2E2E2E2E2E-     	db 2Eh,2Eh,2Eh,2Eh,2Eh,2Eh,2Eh,2Eh,2Eh,2Eh,2Eh,2Eh,2Eh,2Eh,2Eh,2Eh
    51 0000011C 2E2E2E2E2E2E2E     
    52 00000123 2E2E2E2E2E2E2E2E2E-     	db 2Eh,2Eh,2Eh,2Eh,2Eh,2Eh,2Eh,2Eh,2Eh,2Eh,2Eh,2Eh,2Eh,2Eh,2Eh,2Eh
    53 0000012C 2E2E2E2E2E2E2E     
    54 00000133 2E2E2E2E2E2E2E2E2E-     	db 2Eh,2Eh,2Eh,2Eh,2Eh,2Eh,2Eh,2Eh,2Eh,2Eh,2Eh,2Eh,2Eh,2Eh,2Eh,2Eh
    55 0000013C 2E2E2E2E2E2E2E     
    56 00000143 2E2E2E2E2E2E2E2E2E-     	db 2Eh,2Eh,2Eh,2Eh,2Eh,2Eh,2Eh,2Eh,2Eh,2Eh,2Eh,2Eh,2Eh,2Eh,2Eh,2Eh
    57 0000014C 2E2E2E2E2E2E2E     
    58                                  
    59                                  SECTION .text
    60                                  ; clearline 将一个十六进制转储行字符串清零，即将其变为16个0
    61                                  Clearline:
    62 00000000 60                          pushad                      ; 保存主调程序的所有通用寄存器
    63 00000001 BA0F000000                  mov edx, 15
    64                                  .poke:
    65 00000006 B800000000                  mov eax, 0
    66 0000000B E807000000                  call Dumpchar
    67 00000010 83EA01                      sub edx, 1
    68 00000013 73F1                        jae .poke
    69 00000015 61                          popad
    70 00000016 C3                          ret
    71                                  
    72                                  ; Dumpchar 插入一个值到十六进制转储字符串中
    73                                  Dumpchar:
    74 00000017 53                          push ebx
    75 00000018 57                          push edi
    76                                  
    77 00000019 8A98[53000000]              mov bl, byte [Dotxlat + eax]
    78 0000001F 889A[31000000]              mov byte [ASClin + edx + 1], bl
    79                                  
    80 00000025 89C3                        mov ebx, eax
    81 00000027 8D3C52                      lea edi, [edx * 2 + edx]
    82                                  
    83 0000002A 83E00F                      and eax, 0000000Fh
    84 0000002D 8A80[43000000]              mov al, byte [Hexdigits + eax]
    85 00000033 8887[02000000]              mov byte [Dumplin + edi + 2], al
    86                                  
    87 00000039 81E3F0000000                and ebx, 000000F0h
    88 0000003F C1EB04                      shr ebx, 4
    89 00000042 8A9B[43000000]              mov bl, byte [Hexdigits + ebx]
    90 00000048 889F[01000000]              mov byte [Dumplin + edi + 1], bl
    91                                  
    92 0000004E 5F                          pop edi
    93 0000004F 5B                          pop ebx
    94 00000050 C3                          ret
    95                                  
    96                                  ; printline 将dumpline显示到标准输出
    97                                  Printline:
    98 00000051 60                          pushad
    99 00000052 B804000000                  mov eax, 4
   100 00000057 BB01000000                  mov ebx, 1
   101 0000005C B9[00000000]                mov ecx, Dumplin
   102 00000061 BA43000000                  mov edx, FULLLEN
   103 00000066 CD80                        int 80h
   104 00000068 61                          popad
   105 00000069 C3                          ret
   106                                  
   107                                  ;loadbuff 通过INT 80h sys_read 将一个缓冲区从标准输入装满数据
   108                                  Loadbuff:
   109 0000006A 50                          push eax
   110 0000006B 53                          push ebx
   111 0000006C 52                          push edx
   112 0000006D B803000000                  mov eax, 3
   113 00000072 BB00000000                  mov ebx, 0
   114 00000077 B9[00000000]                mov ecx, Buff
   115 0000007C BA0A000000                  mov edx, BUFFLEN
   116 00000081 CD80                        int 80h
   117 00000083 89C5                        mov ebp, eax        ;保存从文件中读入的字节数
   118 00000085 31C9                        xor ecx, ecx
   119 00000087 5A                          pop edx
   120 00000088 5B                          pop ebx
   121 00000089 58                          pop eax
   122 0000008A C3                          ret
   123                                  
   124                                  Newlines:
   125 0000008B 60                          pushad
   126 0000008C 83FA0F                      cmp edx, 15
   127 0000008F 7711                        ja .exit
   128 00000091 B9[A4000000]                mov ecx, EOLs
   129 00000096 B804000000                  mov eax, 4
   130 0000009B BB01000000                  mov ebx, 1
   131 000000A0 CD80                        int 80h
   132                                  .exit:
   133 000000A2 61                          popad 
   134 000000A3 C3                          ret
   135                                  
   136 000000A4 0A0A                    EOLs db 10,10
   137                                  
   138                                  global _start
   139                                  _start:
   140 000000A6 90                          nop
   141 000000A7 90                          nop
   142                                  
   143 000000A8 31F6                        xor esi, esi        ;将整个字节计数器清零
   144 000000AA E8BBFFFFFF                  call Loadbuff
   145 000000AF 83FD00                      cmp ebp, 0
   146 000000B2 7640                        jbe Exit
   147                                  
   148                                  Scan:
   149 000000B4 31C0                        xor eax, eax
   150 000000B6 8A81[00000000]              mov al, byte [Buff + ecx]
   151 000000BC 89F2                        mov edx, esi
   152 000000BE 83E20F                      and edx, 0000000Fh
   153 000000C1 E851FFFFFF                  call Dumpchar
   154                                  
   155 000000C6 46                          inc esi
   156 000000C7 41                          inc ecx
   157 000000C8 39E9                        cmp ecx, ebp
   158 000000CA 720A                        jb .modtest
   159 000000CC E899FFFFFF                  call Loadbuff
   160 000000D1 83FD00                      cmp ebp, 0
   161 000000D4 7614                        jbe Done
   162                                  
   163                                  .modtest:
   164 000000D6 F7C60F000000                test esi, 0000000Fh
   165 000000DC 75D6                        jnz Scan
   166 000000DE E86EFFFFFF                  call Printline
   167 000000E3 E818FFFFFF                  call Clearline
   168 000000E8 EBCA                        jmp Scan
   169                                  
   170                                  Done:
   171 000000EA E862FFFFFF                  call Printline
   172 000000EF E897FFFFFF                  call Newlines
   173                                  
   174                                  Exit:
   175 000000F4 B801000000                  mov eax, 1
   176 000000F9 BB00000000                  mov ebx, 0
   177 000000FE CD80                        int 80h
   178                                  
